; Function Attrs: mustprogress nounwind uwtable
define void @_ZN6duckdb14BaseStatisticsD2Ev(ptr noundef nonnull align 8 dereferenceable(88) %0) unnamed_addr #4 align 2 personality ptr @__gxx_personality_v0 {
  %2 = getelementptr inbounds nuw i8, ptr %0, i64 80
  %3 = load ptr, ptr %2, align 8, !tbaa !33
  %.not.i = icmp eq ptr %3, null
  br i1 %.not.i, label %_ZNSt10unique_ptrIA_N6duckdb14BaseStatisticsESt14default_deleteIS2_EED2Ev.exit, label %4

4:                                                ; preds = %1
  %5 = getelementptr inbounds i8, ptr %3, i64 -8
  %6 = load i64, ptr %5, align 8
  %7 = icmp eq i64 %6, 0
  br i1 %7, label %_ZNKSt14default_deleteIA_N6duckdb14BaseStatisticsEEclIS1_EENSt9enable_ifIXsr14is_convertibleIPA_T_PS2_EE5valueEvE4typeEPS6_.exit.i, label %.preheader.preheader.i.i

.preheader.preheader.i.i:                         ; preds = %4
  %8 = getelementptr inbounds %"class.duckdb::BaseStatistics", ptr %3, i64 %6
  br label %.preheader.i.i

.preheader.i.i:                                   ; preds = %.preheader.i.i, %.preheader.preheader.i.i
  %9 = phi ptr [ %10, %.preheader.i.i ], [ %8, %.preheader.preheader.i.i ]
  %10 = getelementptr inbounds i8, ptr %9, i64 -88
  tail call void @_ZN6duckdb14BaseStatisticsD1Ev(ptr noundef nonnull align 8 dereferenceable(88) %10) #29
  %11 = icmp eq ptr %10, %3
  br i1 %11, label %_ZNKSt14default_deleteIA_N6duckdb14BaseStatisticsEEclIS1_EENSt9enable_ifIXsr14is_convertibleIPA_T_PS2_EE5valueEvE4typeEPS6_.exit.i, label %.preheader.i.i

_ZNKSt14default_deleteIA_N6duckdb14BaseStatisticsEEclIS1_EENSt9enable_ifIXsr14is_convertibleIPA_T_PS2_EE5valueEvE4typeEPS6_.exit.i: ; preds = %.preheader.i.i, %4
  tail call void @_ZdaPv(ptr noundef nonnull %5) #30
  br label %_ZNSt10unique_ptrIA_N6duckdb14BaseStatisticsESt14default_deleteIS2_EED2Ev.exit

_ZNSt10unique_ptrIA_N6duckdb14BaseStatisticsESt14default_deleteIS2_EED2Ev.exit: ; preds = %1, %_ZNKSt14default_deleteIA_N6duckdb14BaseStatisticsEEclIS1_EENSt9enable_ifIXsr14is_convertibleIPA_T_PS2_EE5valueEvE4typeEPS6_.exit.i
  store ptr null, ptr %2, align 8, !tbaa !33
  tail call void @_ZN6duckdb11LogicalTypeD1Ev(ptr noundef nonnull align 8 dereferenceable(24) %0) #29
  ret void
}